; Function Attrs: nofree norecurse nosync nounwind memory(read, inaccessiblemem: none) uwtable
define ptr @Amap_ManGetLast_rec(ptr noundef readonly captures(none) %0, ptr noundef readonly %1) local_unnamed_addr #5 {
  %3 = getelementptr inbounds nuw i8, ptr %1, i64 20
  %4 = load i32, ptr %3, align 4, !tbaa !35
  %5 = icmp eq i32 %4, 0
  br i1 %5, label %tailrecurse._crit_edge, label %Amap_ObjChoice.exit.lr.ph

Amap_ObjChoice.exit.lr.ph:                        ; preds = %2
  %6 = getelementptr i8, ptr %0, i64 48
  %.val.i = load ptr, ptr %6, align 8, !tbaa !21
  %7 = getelementptr i8, ptr %.val.i, i64 8
  %.val.val.i = load ptr, ptr %7, align 8, !tbaa !25
  br label %Amap_ObjChoice.exit

Amap_ObjChoice.exit:                              ; preds = %Amap_ObjChoice.exit.lr.ph, %Amap_ObjChoice.exit
  %8 = phi i32 [ %4, %Amap_ObjChoice.exit.lr.ph ], [ %13, %Amap_ObjChoice.exit ]
  %9 = sext i32 %8 to i64
  %10 = getelementptr inbounds ptr, ptr %.val.val.i, i64 %9
  %11 = load ptr, ptr %10, align 8, !tbaa !26
  %12 = getelementptr inbounds nuw i8, ptr %11, i64 20
  %13 = load i32, ptr %12, align 4, !tbaa !35
  %14 = icmp eq i32 %13, 0
  br i1 %14, label %tailrecurse._crit_edge, label %Amap_ObjChoice.exit

tailrecurse._crit_edge:                           ; preds = %Amap_ObjChoice.exit, %2
  %.tr6.lcssa = phi ptr [ %1, %2 ], [ %11, %Amap_ObjChoice.exit ]
  ret ptr %.tr6.lcssa
}